target datalayout = "e-m:e-p270:32:32-p271:32:32-p272:64:64-i64:64-i128:128-f80:128-n8:16:32:64-S128"
target triple = "x86_64-unknown-linux-gnu"

; Function Attrs: mustprogress nounwind uwtable
define linkonce_odr noundef i32 @_ZN6icu_7516CollationBuilder17nextIndexFromNodeEl(i64 noundef %node) #3 comdat align 2 {
entry:
  %node.addr = alloca i64, align 8
  store i64 %node, ptr %node.addr, align 8
  %0 = load i64, ptr %node.addr, align 8
  %conv = trunc i64 %0 to i32
  %shr = ashr i32 %conv, 8
  %and = and i32 %shr, 1048575
  ret i32 %and
}

; Function Attrs: mustprogress nounwind uwtable
define linkonce_odr noundef signext i8 @_ZN6icu_7516CollationBuilder14isTailoredNodeEl(i64 noundef %node) #3 comdat align 2 {
entry:
  %node.addr = alloca i64, align 8
  store i64 %node, ptr %node.addr, align 8
  %0 = load i64, ptr %node.addr, align 8
  %and = and i64 %0, 8
  %cmp = icmp ne i64 %and, 0
  %conv = zext i1 %cmp to i8
  ret i8 %conv
}

; Function Attrs: mustprogress nounwind uwtable
define linkonce_odr noundef i32 @_ZN6icu_7516CollationBuilder16strengthFromNodeEl(i64 noundef %node) #3 comdat align 2 {
entry:
  %node.addr = alloca i64, align 8
  store i64 %node, ptr %node.addr, align 8
  %0 = load i64, ptr %node.addr, align 8
  %conv = trunc i64 %0 to i32
  %and = and i32 %conv, 3
  ret i32 %and
}

; Function Attrs: mustprogress uwtable
define noundef i32 @_ZN6icu_7516CollationBuilder18countTailoredNodesEPKlii(ptr noundef %nodesArray, i32 noundef %i, i32 noundef %strength) #0 align 2 {
entry:
  %nodesArray.addr = alloca ptr, align 8
  %i.addr = alloca i32, align 4
  %strength.addr = alloca i32, align 4
  %count = alloca i32, align 4
  %node = alloca i64, align 8
  store ptr %nodesArray, ptr %nodesArray.addr, align 8
  store i32 %i, ptr %i.addr, align 4
  store i32 %strength, ptr %strength.addr, align 4
  store i32 0, ptr %count, align 4
  br label %for.cond

for.cond:                                         ; preds = %if.end10, %entry
  %0 = load i32, ptr %i.addr, align 4
  %cmp = icmp eq i32 %0, 0
  br i1 %cmp, label %if.then, label %if.end

if.then:                                          ; preds = %for.cond
  br label %for.end

if.end:                                           ; preds = %for.cond
  %1 = load ptr, ptr %nodesArray.addr, align 8
  %2 = load i32, ptr %i.addr, align 4
  %idxprom = sext i32 %2 to i64
  %arrayidx = getelementptr inbounds i64, ptr %1, i64 %idxprom
  %3 = load i64, ptr %arrayidx, align 8
  store i64 %3, ptr %node, align 8
  %4 = load i64, ptr %node, align 8
  %call = call noundef i32 @_ZN6icu_7516CollationBuilder16strengthFromNodeEl(i64 noundef %4)
  %5 = load i32, ptr %strength.addr, align 4
  %cmp1 = icmp slt i32 %call, %5
  br i1 %cmp1, label %if.then2, label %if.end3

if.then2:                                         ; preds = %if.end
  br label %for.end

if.end3:                                          ; preds = %if.end
  %6 = load i64, ptr %node, align 8
  %call4 = call noundef i32 @_ZN6icu_7516CollationBuilder16strengthFromNodeEl(i64 noundef %6)
  %7 = load i32, ptr %strength.addr, align 4
  %cmp5 = icmp eq i32 %call4, %7
  br i1 %cmp5, label %if.then6, label %if.end10

if.then6:                                         ; preds = %if.end3
  %8 = load i64, ptr %node, align 8
  %call7 = call noundef signext i8 @_ZN6icu_7516CollationBuilder14isTailoredNodeEl(i64 noundef %8)
  %tobool = icmp ne i8 %call7, 0
  br i1 %tobool, label %if.then8, label %if.else

if.then8:                                         ; preds = %if.then6
  %9 = load i32, ptr %count, align 4
  %inc = add nsw i32 %9, 1
  store i32 %inc, ptr %count, align 4
  br label %if.end9

if.else:                                          ; preds = %if.then6
  br label %for.end

if.end9:                                          ; preds = %if.then8
  br label %if.end10

if.end10:                                         ; preds = %if.end9, %if.end3
  %10 = load i64, ptr %node, align 8
  %call11 = call noundef i32 @_ZN6icu_7516CollationBuilder17nextIndexFromNodeEl(i64 noundef %10)
  store i32 %call11, ptr %i.addr, align 4
  br label %for.cond, !llvm.loop !31

for.end:                                          ; preds = %if.else, %if.then2, %if.then
  %11 = load i32, ptr %count, align 4
  ret i32 %11
}