; Function Attrs: mustprogress nofree norecurse nosync nounwind willreturn memory(argmem: read) uwtable
define noundef i32 @_ZN6icu_7516CollationBuilder18countTailoredNodesEPKlii(ptr nocapture noundef readonly %nodesArray, i32 noundef %i, i32 noundef %strength) local_unnamed_addr #8 align 2 {
entry:
  %cmp12 = icmp eq i32 %i, 0
  br i1 %cmp12, label %for.end, label %if.end

if.end:                                           ; preds = %entry, %if.end10
  %i.addr.014 = phi i32 [ %and.i11, %if.end10 ], [ %i, %entry ]
  %count.013 = phi i32 [ %count.1, %if.end10 ], [ 0, %entry ]
  %idxprom = sext i32 %i.addr.014 to i64
  %arrayidx = getelementptr inbounds i64, ptr %nodesArray, i64 %idxprom
  %0 = load i64, ptr %arrayidx, align 8
  %conv.i = trunc i64 %0 to i32
  %and.i = and i32 %conv.i, 3
  %cmp1 = icmp slt i32 %and.i, %strength
  br i1 %cmp1, label %for.end, label %if.end3

if.end3:                                          ; preds = %if.end
  %cmp5 = icmp eq i32 %and.i, %strength
  br i1 %cmp5, label %if.then6, label %if.end10

if.then6:                                         ; preds = %if.end3
  %1 = and i64 %0, 8
  %tobool.not = icmp eq i64 %1, 0
  br i1 %tobool.not, label %for.end, label %if.then8

if.then8:                                         ; preds = %if.then6
  %inc = add nsw i32 %count.013, 1
  br label %if.end10

if.end10:                                         ; preds = %if.then8, %if.end3
  %count.1 = phi i32 [ %inc, %if.then8 ], [ %count.013, %if.end3 ]
  %shr.i = lshr i32 %conv.i, 8
  %and.i11 = and i32 %shr.i, 1048575
  %cmp = icmp eq i32 %and.i11, 0
  br i1 %cmp, label %for.end, label %if.end, !llvm.loop !4

for.end:                                          ; preds = %if.end10, %if.end, %if.then6, %entry
  %count.0.lcssa = phi i32 [ 0, %entry ], [ %count.013, %if.then6 ], [ %count.013, %if.end ], [ %count.1, %if.end10 ]
  ret i32 %count.0.lcssa
}